(dp0
S'train'
p1
(dp2
S'/data/zming/datasets/test/mtcnn_align_128/0/Zuheng_3.png'
p3
I4
sS'/data/zming/datasets/test/mtcnn_align_128/0/Zuheng_4.png'
p4
I4
sS'/data/zming/datasets/test/mtcnn_align_128/0/Zuheng_5.png'
p5
I4
sS'/data/zming/datasets/test/mtcnn_align_128/0/joseph_2.png'
p6
I4
sS'/data/zming/datasets/test/mtcnn_align_128/0/joseph_3.png'
p7
I4
sS'/data/zming/datasets/test/mtcnn_align_128/0/joseph_0.png'
p8
I4
sS'/data/zming/datasets/test/mtcnn_align_128/0/Zuheng_0.png'
p9
I4
sS'/data/zming/datasets/test/mtcnn_align_128/0/Zuheng_1.png'
p10
I4
sS'/data/zming/datasets/test/mtcnn_align_128/0/Zuheng_2.png'
p11
I4
sS'/data/zming/datasets/test/mtcnn_align_128/0/joseph_4.png'
p12
I4
sS'/data/zming/datasets/test/mtcnn_align_128/0/joseph_5.png'
p13
I4
sS'/data/zming/datasets/test/mtcnn_align_128/0/joseph_1.png'
p14
I4
ss.